target datalayout = "e-m:e-p270:32:32-p271:32:32-p272:64:64-i64:64-i128:128-f80:128-n8:16:32:64-S128"
target triple = "x86_64-pc-linux-gnu"

%struct.h5tools_dump_header_t = type { ptr, ptr, ptr, ptr, ptr, ptr, ptr, ptr, ptr, ptr, ptr, ptr, ptr, ptr, ptr, ptr, ptr, ptr, ptr, ptr, ptr, ptr, ptr, ptr, ptr, ptr, ptr, ptr, ptr, ptr, ptr, ptr, ptr, ptr, ptr, ptr, ptr, ptr, ptr, ptr, ptr, ptr, ptr, ptr, ptr, ptr, ptr, ptr, ptr, ptr, ptr, ptr, ptr, ptr, ptr, ptr, ptr, ptr, ptr, ptr, ptr, ptr, ptr, ptr, ptr, ptr, ptr, ptr, ptr, ptr, ptr, ptr, ptr, ptr, ptr, ptr, ptr, ptr, ptr, ptr, ptr, ptr, ptr, ptr, ptr, ptr, ptr, ptr, ptr, ptr, ptr, ptr, ptr, ptr, ptr }

@.str.14 = private unnamed_addr constant [2 x i8] c"{\00", align 1
@.str.15 = private unnamed_addr constant [2 x i8] c"}\00", align 1
@.str.16 = private unnamed_addr constant [2 x i8] c"\0A\00", align 1
@h5tools_dump_header_format = global ptr null, align 8
@enable_error_stack = external global i32, align 4
@H5tools_ERR_STACK_g = external global i64, align 8
@H5tools_ERR_CLS_g = external global i64, align 8
@.str.55 = private unnamed_addr constant [112 x i8] c"generated/home/dtcxzyw/WorkSpace/Projects/compilers/llvm-opt-benchmark/bench/hdf5/hdf5/tools/lib/h5tools_dump.c\00", align 1
@H5E_tools_g = external global i64, align 8
@H5E_tools_min_id_g = external global i64, align 8
@stderr = external global ptr, align 8
@.str.72 = private unnamed_addr constant [6 x i8] c"%s %s\00", align 1
@__func__.h5tools_print_dataspace = private unnamed_addr constant [24 x i8] c"h5tools_print_dataspace\00", align 1
@.str.181 = private unnamed_addr constant [33 x i8] c"H5Sget_simple_extent_dims failed\00", align 1
@.str.182 = private unnamed_addr constant [33 x i8] c"H5Sget_simple_extent_type failed\00", align 1
@.str.183 = private unnamed_addr constant [7 x i8] c"SCALAR\00", align 1
@.str.184 = private unnamed_addr constant [15 x i8] c"%s %s { %s %lu\00", align 1
@.str.185 = private unnamed_addr constant [7 x i8] c"SIMPLE\00", align 1
@.str.186 = private unnamed_addr constant [6 x i8] c", %lu\00", align 1
@.str.187 = private unnamed_addr constant [7 x i8] c" %s / \00", align 1
@.str.188 = private unnamed_addr constant [14 x i8] c"H5S_UNLIMITED\00", align 1
@.str.189 = private unnamed_addr constant [7 x i8] c"%s %lu\00", align 1
@.str.190 = private unnamed_addr constant [5 x i8] c", %s\00", align 1
@.str.191 = private unnamed_addr constant [6 x i8] c" %s }\00", align 1
@.str.192 = private unnamed_addr constant [5 x i8] c"NULL\00", align 1
@.str.193 = private unnamed_addr constant [25 x i8] c"%s unknown dataspace %s\0A\00", align 1

; Function Attrs: nounwind uwtable
define i32 @h5tools_print_dataspace(ptr noundef %0, i64 noundef %1) #0 {
  %3 = alloca ptr, align 8
  %4 = alloca i64, align 8
  %5 = alloca [32 x i64], align 16
  %6 = alloca [32 x i64], align 16
  %7 = alloca i32, align 4
  %8 = alloca i32, align 4
  %9 = alloca i8, align 1
  %10 = alloca i32, align 4
  %11 = alloca i32, align 4
  store ptr %0, ptr %3, align 8, !tbaa !35
  store i64 %1, ptr %4, align 8, !tbaa !14
  call void @llvm.lifetime.start.p0(i64 256, ptr %5) #10
  call void @llvm.lifetime.start.p0(i64 256, ptr %6) #10
  call void @llvm.lifetime.start.p0(i64 4, ptr %7) #10
  store i32 -1, ptr %7, align 4, !tbaa !16
  call void @llvm.lifetime.start.p0(i64 4, ptr %8) #10
  store i32 -1, ptr %8, align 4, !tbaa !16
  call void @llvm.lifetime.start.p0(i64 1, ptr %9) #10
  store i8 0, ptr %9, align 1, !tbaa !21
  call void @llvm.lifetime.start.p0(i64 4, ptr %10) #10
  call void @llvm.lifetime.start.p0(i64 4, ptr %11) #10
  store i32 0, ptr %11, align 4, !tbaa !16
  br label %12

12:                                               ; preds = %2
  br label %13

13:                                               ; preds = %12
  br label %14

14:                                               ; preds = %13
  %15 = load i64, ptr %4, align 8, !tbaa !14
  %16 = getelementptr inbounds [32 x i64], ptr %5, i64 0, i64 0
  %17 = getelementptr inbounds [32 x i64], ptr %6, i64 0, i64 0
  %18 = call i32 @H5Sget_simple_extent_dims(i64 noundef %15, ptr noundef %16, ptr noundef %17)
  store i32 %18, ptr %7, align 4, !tbaa !16
  %19 = icmp slt i32 %18, 0
  br i1 %19, label %20, label %55

20:                                               ; preds = %14
  br label %21

21:                                               ; preds = %20
  br label %22

22:                                               ; preds = %21
  %23 = load i32, ptr @enable_error_stack, align 4, !tbaa !16
  %24 = icmp sgt i32 %23, 0
  br i1 %24, label %25, label %43

25:                                               ; preds = %22
  %26 = load i64, ptr @H5tools_ERR_STACK_g, align 8, !tbaa !14
  %27 = icmp sge i64 %26, 0
  br i1 %27, label %28, label %37

28:                                               ; preds = %25
  %29 = load i64, ptr @H5tools_ERR_CLS_g, align 8, !tbaa !14
  %30 = icmp sge i64 %29, 0
  br i1 %30, label %31, label %37

31:                                               ; preds = %28
  %32 = load i64, ptr @H5tools_ERR_STACK_g, align 8, !tbaa !14
  %33 = load i64, ptr @H5tools_ERR_CLS_g, align 8, !tbaa !14
  %34 = load i64, ptr @H5E_tools_g, align 8, !tbaa !14
  %35 = load i64, ptr @H5E_tools_min_id_g, align 8, !tbaa !14
  %36 = call i32 (i64, ptr, ptr, i32, i64, i64, i64, ptr, ...) @H5Epush2(i64 noundef %32, ptr noundef @.str.55, ptr noundef @__func__.h5tools_print_dataspace, i32 noundef 2712, i64 noundef %33, i64 noundef %34, i64 noundef %35, ptr noundef @.str.181)
  br label %42

37:                                               ; preds = %28, %25
  %38 = load ptr, ptr @stderr, align 8, !tbaa !8
  %39 = call i32 (ptr, ptr, ...) @fprintf(ptr noundef %38, ptr noundef @.str.181) #10
  %40 = load ptr, ptr @stderr, align 8, !tbaa !8
  %41 = call i32 (ptr, ptr, ...) @fprintf(ptr noundef %40, ptr noundef @.str.16) #10
  br label %42

42:                                               ; preds = %37, %31
  br label %43

43:                                               ; preds = %42, %22
  br label %44

44:                                               ; preds = %43
  br label %45

45:                                               ; preds = %44
  br label %46

46:                                               ; preds = %45
  store i32 -1, ptr %11, align 4, !tbaa !16
  %47 = load i8, ptr %9, align 1, !tbaa !21, !range !30, !noundef !31
  %48 = trunc i8 %47 to i1
  br i1 %48, label %50, label %49

49:                                               ; preds = %46
  br label %192

50:                                               ; preds = %46
  br label %51

51:                                               ; preds = %50
  br label %52

52:                                               ; preds = %51
  br label %53

53:                                               ; preds = %52
  br label %54

54:                                               ; preds = %53
  br label %55

55:                                               ; preds = %54, %14
  %56 = load i64, ptr %4, align 8, !tbaa !14
  %57 = call i32 @H5Sget_simple_extent_type(i64 noundef %56)
  store i32 %57, ptr %8, align 4, !tbaa !16
  %58 = icmp slt i32 %57, 0
  br i1 %58, label %59, label %94

59:                                               ; preds = %55
  br label %60

60:                                               ; preds = %59
  br label %61

61:                                               ; preds = %60
  %62 = load i32, ptr @enable_error_stack, align 4, !tbaa !16
  %63 = icmp sgt i32 %62, 0
  br i1 %63, label %64, label %82

64:                                               ; preds = %61
  %65 = load i64, ptr @H5tools_ERR_STACK_g, align 8, !tbaa !14
  %66 = icmp sge i64 %65, 0
  br i1 %66, label %67, label %76

67:                                               ; preds = %64
  %68 = load i64, ptr @H5tools_ERR_CLS_g, align 8, !tbaa !14
  %69 = icmp sge i64 %68, 0
  br i1 %69, label %70, label %76

70:                                               ; preds = %67
  %71 = load i64, ptr @H5tools_ERR_STACK_g, align 8, !tbaa !14
  %72 = load i64, ptr @H5tools_ERR_CLS_g, align 8, !tbaa !14
  %73 = load i64, ptr @H5E_tools_g, align 8, !tbaa !14
  %74 = load i64, ptr @H5E_tools_min_id_g, align 8, !tbaa !14
  %75 = call i32 (i64, ptr, ptr, i32, i64, i64, i64, ptr, ...) @H5Epush2(i64 noundef %71, ptr noundef @.str.55, ptr noundef @__func__.h5tools_print_dataspace, i32 noundef 2715, i64 noundef %72, i64 noundef %73, i64 noundef %74, ptr noundef @.str.182)
  br label %81

76:                                               ; preds = %67, %64
  %77 = load ptr, ptr @stderr, align 8, !tbaa !8
  %78 = call i32 (ptr, ptr, ...) @fprintf(ptr noundef %77, ptr noundef @.str.182) #10
  %79 = load ptr, ptr @stderr, align 8, !tbaa !8
  %80 = call i32 (ptr, ptr, ...) @fprintf(ptr noundef %79, ptr noundef @.str.16) #10
  br label %81

81:                                               ; preds = %76, %70
  br label %82

82:                                               ; preds = %81, %61
  br label %83

83:                                               ; preds = %82
  br label %84

84:                                               ; preds = %83
  br label %85

85:                                               ; preds = %84
  store i32 -1, ptr %11, align 4, !tbaa !16
  %86 = load i8, ptr %9, align 1, !tbaa !21, !range !30, !noundef !31
  %87 = trunc i8 %86 to i1
  br i1 %87, label %89, label %88

88:                                               ; preds = %85
  br label %192

89:                                               ; preds = %85
  br label %90

90:                                               ; preds = %89
  br label %91

91:                                               ; preds = %90
  br label %92

92:                                               ; preds = %91
  br label %93

93:                                               ; preds = %92
  br label %94

94:                                               ; preds = %93, %55
  %95 = load i32, ptr %8, align 4, !tbaa !16
  switch i32 %95, label %188 [
    i32 0, label %96
    i32 1, label %102
    i32 2, label %181
    i32 -1, label %187
  ]

96:                                               ; preds = %94
  %97 = load ptr, ptr %3, align 8, !tbaa !35
  %98 = load ptr, ptr @h5tools_dump_header_format, align 8, !tbaa !3
  %99 = getelementptr inbounds nuw %struct.h5tools_dump_header_t, ptr %98, i32 0, i32 83
  %100 = load ptr, ptr %99, align 8, !tbaa !82
  %101 = call ptr (ptr, ptr, ...) @h5tools_str_append(ptr noundef %97, ptr noundef @.str.72, ptr noundef %100, ptr noundef @.str.183)
  br label %191

102:                                              ; preds = %94
  %103 = load ptr, ptr %3, align 8, !tbaa !35
  %104 = load ptr, ptr @h5tools_dump_header_format, align 8, !tbaa !3
  %105 = getelementptr inbounds nuw %struct.h5tools_dump_header_t, ptr %104, i32 0, i32 83
  %106 = load ptr, ptr %105, align 8, !tbaa !82
  %107 = load ptr, ptr @h5tools_dump_header_format, align 8, !tbaa !3
  %108 = getelementptr inbounds nuw %struct.h5tools_dump_header_t, ptr %107, i32 0, i32 85
  %109 = load ptr, ptr %108, align 8, !tbaa !83
  %110 = getelementptr inbounds [32 x i64], ptr %5, i64 0, i64 0
  %111 = load i64, ptr %110, align 16, !tbaa !14
  %112 = call ptr (ptr, ptr, ...) @h5tools_str_append(ptr noundef %103, ptr noundef @.str.184, ptr noundef %106, ptr noundef @.str.185, ptr noundef %109, i64 noundef %111)
  store i32 1, ptr %10, align 4, !tbaa !16
  br label %113

113:                                              ; preds = %124, %102
  %114 = load i32, ptr %10, align 4, !tbaa !16
  %115 = load i32, ptr %7, align 4, !tbaa !16
  %116 = icmp slt i32 %114, %115
  br i1 %116, label %117, label %127

117:                                              ; preds = %113
  %118 = load ptr, ptr %3, align 8, !tbaa !35
  %119 = load i32, ptr %10, align 4, !tbaa !16
  %120 = sext i32 %119 to i64
  %121 = getelementptr inbounds [32 x i64], ptr %5, i64 0, i64 %120
  %122 = load i64, ptr %121, align 8, !tbaa !14
  %123 = call ptr (ptr, ptr, ...) @h5tools_str_append(ptr noundef %118, ptr noundef @.str.186, i64 noundef %122)
  br label %124

124:                                              ; preds = %117
  %125 = load i32, ptr %10, align 4, !tbaa !16
  %126 = add nsw i32 %125, 1
  store i32 %126, ptr %10, align 4, !tbaa !16
  br label %113, !llvm.loop !84

127:                                              ; preds = %113
  %128 = load ptr, ptr %3, align 8, !tbaa !35
  %129 = load ptr, ptr @h5tools_dump_header_format, align 8, !tbaa !3
  %130 = getelementptr inbounds nuw %struct.h5tools_dump_header_t, ptr %129, i32 0, i32 86
  %131 = load ptr, ptr %130, align 8, !tbaa !85
  %132 = call ptr (ptr, ptr, ...) @h5tools_str_append(ptr noundef %128, ptr noundef @.str.187, ptr noundef %131)
  %133 = getelementptr inbounds [32 x i64], ptr %6, i64 0, i64 0
  %134 = load i64, ptr %133, align 16, !tbaa !14
  %135 = icmp eq i64 %134, -1
  br i1 %135, label %136, label %142

136:                                              ; preds = %127
  %137 = load ptr, ptr %3, align 8, !tbaa !35
  %138 = load ptr, ptr @h5tools_dump_header_format, align 8, !tbaa !3
  %139 = getelementptr inbounds nuw %struct.h5tools_dump_header_t, ptr %138, i32 0, i32 85
  %140 = load ptr, ptr %139, align 8, !tbaa !83
  %141 = call ptr (ptr, ptr, ...) @h5tools_str_append(ptr noundef %137, ptr noundef @.str.72, ptr noundef %140, ptr noundef @.str.188)
  br label %150

142:                                              ; preds = %127
  %143 = load ptr, ptr %3, align 8, !tbaa !35
  %144 = load ptr, ptr @h5tools_dump_header_format, align 8, !tbaa !3
  %145 = getelementptr inbounds nuw %struct.h5tools_dump_header_t, ptr %144, i32 0, i32 85
  %146 = load ptr, ptr %145, align 8, !tbaa !83
  %147 = getelementptr inbounds [32 x i64], ptr %6, i64 0, i64 0
  %148 = load i64, ptr %147, align 16, !tbaa !14
  %149 = call ptr (ptr, ptr, ...) @h5tools_str_append(ptr noundef %143, ptr noundef @.str.189, ptr noundef %146, i64 noundef %148)
  br label %150

150:                                              ; preds = %142, %136
  store i32 1, ptr %10, align 4, !tbaa !16
  br label %151

151:                                              ; preds = %172, %150
  %152 = load i32, ptr %10, align 4, !tbaa !16
  %153 = load i32, ptr %7, align 4, !tbaa !16
  %154 = icmp slt i32 %152, %153
  br i1 %154, label %155, label %175

155:                                              ; preds = %151
  %156 = load i32, ptr %10, align 4, !tbaa !16
  %157 = sext i32 %156 to i64
  %158 = getelementptr inbounds [32 x i64], ptr %6, i64 0, i64 %157
  %159 = load i64, ptr %158, align 8, !tbaa !14
  %160 = icmp eq i64 %159, -1
  br i1 %160, label %161, label %164

161:                                              ; preds = %155
  %162 = load ptr, ptr %3, align 8, !tbaa !35
  %163 = call ptr (ptr, ptr, ...) @h5tools_str_append(ptr noundef %162, ptr noundef @.str.190, ptr noundef @.str.188)
  br label %171

164:                                              ; preds = %155
  %165 = load ptr, ptr %3, align 8, !tbaa !35
  %166 = load i32, ptr %10, align 4, !tbaa !16
  %167 = sext i32 %166 to i64
  %168 = getelementptr inbounds [32 x i64], ptr %6, i64 0, i64 %167
  %169 = load i64, ptr %168, align 8, !tbaa !14
  %170 = call ptr (ptr, ptr, ...) @h5tools_str_append(ptr noundef %165, ptr noundef @.str.186, i64 noundef %169)
  br label %171

171:                                              ; preds = %164, %161
  br label %172

172:                                              ; preds = %171
  %173 = load i32, ptr %10, align 4, !tbaa !16
  %174 = add nsw i32 %173, 1
  store i32 %174, ptr %10, align 4, !tbaa !16
  br label %151, !llvm.loop !86

175:                                              ; preds = %151
  %176 = load ptr, ptr %3, align 8, !tbaa !35
  %177 = load ptr, ptr @h5tools_dump_header_format, align 8, !tbaa !3
  %178 = getelementptr inbounds nuw %struct.h5tools_dump_header_t, ptr %177, i32 0, i32 86
  %179 = load ptr, ptr %178, align 8, !tbaa !85
  %180 = call ptr (ptr, ptr, ...) @h5tools_str_append(ptr noundef %176, ptr noundef @.str.191, ptr noundef %179)
  br label %191

181:                                              ; preds = %94
  %182 = load ptr, ptr %3, align 8, !tbaa !35
  %183 = load ptr, ptr @h5tools_dump_header_format, align 8, !tbaa !3
  %184 = getelementptr inbounds nuw %struct.h5tools_dump_header_t, ptr %183, i32 0, i32 83
  %185 = load ptr, ptr %184, align 8, !tbaa !82
  %186 = call ptr (ptr, ptr, ...) @h5tools_str_append(ptr noundef %182, ptr noundef @.str.72, ptr noundef %185, ptr noundef @.str.192)
  br label %191

187:                                              ; preds = %94
  br label %188

188:                                              ; preds = %94, %187
  %189 = load ptr, ptr %3, align 8, !tbaa !35
  %190 = call ptr (ptr, ptr, ...) @h5tools_str_append(ptr noundef %189, ptr noundef @.str.193, ptr noundef @.str.14, ptr noundef @.str.15)
  br label %191

191:                                              ; preds = %188, %181, %175, %96
  br label %192

192:                                              ; preds = %191, %88, %49
  store i8 1, ptr %9, align 1, !tbaa !21
  br label %193

193:                                              ; preds = %192
  br label %194

194:                                              ; preds = %193
  br label %195

195:                                              ; preds = %194
  %196 = load i32, ptr %11, align 4, !tbaa !16
  call void @llvm.lifetime.end.p0(i64 4, ptr %11) #10
  call void @llvm.lifetime.end.p0(i64 4, ptr %10) #10
  call void @llvm.lifetime.end.p0(i64 1, ptr %9) #10
  call void @llvm.lifetime.end.p0(i64 4, ptr %8) #10
  call void @llvm.lifetime.end.p0(i64 4, ptr %7) #10
  call void @llvm.lifetime.end.p0(i64 256, ptr %6) #10
  call void @llvm.lifetime.end.p0(i64 256, ptr %5) #10
  ret i32 %196
}