; Function Attrs: nounwind uwtable
define range(i32 -1, 1) i32 @h5tools_print_dataspace(ptr noundef %0, i64 noundef %1) local_unnamed_addr #1 {
  %3 = alloca [32 x i64], align 16
  %4 = alloca [32 x i64], align 16
  call void @llvm.lifetime.start.p0(i64 256, ptr nonnull %3) #12
  call void @llvm.lifetime.start.p0(i64 256, ptr nonnull %4) #12
  %5 = call i32 @H5Sget_simple_extent_dims(i64 noundef %1, ptr noundef nonnull %3, ptr noundef nonnull %4) #12
  %6 = icmp slt i32 %5, 0
  br i1 %6, label %7, label %23

7:                                                ; preds = %2
  %8 = load i32, ptr @enable_error_stack, align 4, !tbaa !8
  %9 = icmp sgt i32 %8, 0
  br i1 %9, label %10, label %93

10:                                               ; preds = %7
  %11 = load i64, ptr @H5tools_ERR_STACK_g, align 8, !tbaa !19
  %12 = icmp sgt i64 %11, -1
  %13 = load i64, ptr @H5tools_ERR_CLS_g, align 8
  %14 = icmp sgt i64 %13, -1
  %or.cond = select i1 %12, i1 %14, i1 false
  br i1 %or.cond, label %15, label %19

15:                                               ; preds = %10
  %16 = load i64, ptr @H5E_tools_g, align 8, !tbaa !19
  %17 = load i64, ptr @H5E_tools_min_id_g, align 8, !tbaa !19
  %18 = call i32 (i64, ptr, ptr, i32, i64, i64, i64, ptr, ...) @H5Epush2(i64 noundef %11, ptr noundef nonnull @.str.55, ptr noundef nonnull @__func__.h5tools_print_dataspace, i32 noundef 2712, i64 noundef %13, i64 noundef %16, i64 noundef %17, ptr noundef nonnull @.str.181) #12
  br label %93

19:                                               ; preds = %10
  %20 = load ptr, ptr @stderr, align 8, !tbaa !32
  %21 = call i64 @fwrite(ptr nonnull @.str.181, i64 32, i64 1, ptr %20) #13
  %22 = load ptr, ptr @stderr, align 8, !tbaa !32
  %fputc37 = call i32 @fputc(i32 10, ptr %22)
  br label %93

23:                                               ; preds = %2
  %24 = call i32 @H5Sget_simple_extent_type(i64 noundef %1) #12
  %25 = icmp slt i32 %24, 0
  br i1 %25, label %26, label %42

26:                                               ; preds = %23
  %27 = load i32, ptr @enable_error_stack, align 4, !tbaa !8
  %28 = icmp sgt i32 %27, 0
  br i1 %28, label %29, label %93

29:                                               ; preds = %26
  %30 = load i64, ptr @H5tools_ERR_STACK_g, align 8, !tbaa !19
  %31 = icmp sgt i64 %30, -1
  %32 = load i64, ptr @H5tools_ERR_CLS_g, align 8
  %33 = icmp sgt i64 %32, -1
  %or.cond3 = select i1 %31, i1 %33, i1 false
  br i1 %or.cond3, label %34, label %38

34:                                               ; preds = %29
  %35 = load i64, ptr @H5E_tools_g, align 8, !tbaa !19
  %36 = load i64, ptr @H5E_tools_min_id_g, align 8, !tbaa !19
  %37 = call i32 (i64, ptr, ptr, i32, i64, i64, i64, ptr, ...) @H5Epush2(i64 noundef %30, ptr noundef nonnull @.str.55, ptr noundef nonnull @__func__.h5tools_print_dataspace, i32 noundef 2715, i64 noundef %32, i64 noundef %35, i64 noundef %36, ptr noundef nonnull @.str.182) #12
  br label %93

38:                                               ; preds = %29
  %39 = load ptr, ptr @stderr, align 8, !tbaa !32
  %40 = call i64 @fwrite(ptr nonnull @.str.182, i64 32, i64 1, ptr %39) #13
  %41 = load ptr, ptr @stderr, align 8, !tbaa !32
  %fputc = call i32 @fputc(i32 10, ptr %41)
  br label %93

42:                                               ; preds = %23
  switch i32 %24, label %91 [
    i32 0, label %43
    i32 1, label %48
    i32 2, label %86
  ]

43:                                               ; preds = %42
  %44 = load ptr, ptr @h5tools_dump_header_format, align 8, !tbaa !3
  %45 = getelementptr inbounds nuw i8, ptr %44, i64 664
  %46 = load ptr, ptr %45, align 8, !tbaa !72
  %47 = call ptr (ptr, ptr, ...) @h5tools_str_append(ptr noundef %0, ptr noundef nonnull @.str.72, ptr noundef %46, ptr noundef nonnull @.str.183) #12
  br label %93

48:                                               ; preds = %42
  %49 = load ptr, ptr @h5tools_dump_header_format, align 8, !tbaa !3
  %50 = getelementptr inbounds nuw i8, ptr %49, i64 664
  %51 = load ptr, ptr %50, align 8, !tbaa !72
  %52 = getelementptr inbounds nuw i8, ptr %49, i64 680
  %53 = load ptr, ptr %52, align 8, !tbaa !73
  %54 = load i64, ptr %3, align 16, !tbaa !19
  %55 = call ptr (ptr, ptr, ...) @h5tools_str_append(ptr noundef %0, ptr noundef nonnull @.str.184, ptr noundef %51, ptr noundef nonnull @.str.185, ptr noundef %53, i64 noundef %54) #12
  %56 = icmp samesign ugt i32 %5, 1
  br i1 %56, label %.lr.ph.preheader, label %._crit_edge

.lr.ph.preheader:                                 ; preds = %48
  %wide.trip.count = zext nneg i32 %5 to i64
  br label %.lr.ph

.lr.ph:                                           ; preds = %.lr.ph.preheader, %.lr.ph
  %indvars.iv = phi i64 [ 1, %.lr.ph.preheader ], [ %indvars.iv.next, %.lr.ph ]
  %57 = getelementptr inbounds nuw [32 x i64], ptr %3, i64 0, i64 %indvars.iv
  %58 = load i64, ptr %57, align 8, !tbaa !19
  %59 = call ptr (ptr, ptr, ...) @h5tools_str_append(ptr noundef %0, ptr noundef nonnull @.str.186, i64 noundef %58) #12
  %indvars.iv.next = add nuw nsw i64 %indvars.iv, 1
  %exitcond.not = icmp eq i64 %indvars.iv.next, %wide.trip.count
  br i1 %exitcond.not, label %._crit_edge, label %.lr.ph, !llvm.loop !74

._crit_edge:                                      ; preds = %.lr.ph, %48
  %60 = load ptr, ptr @h5tools_dump_header_format, align 8, !tbaa !3
  %61 = getelementptr inbounds nuw i8, ptr %60, i64 688
  %62 = load ptr, ptr %61, align 8, !tbaa !75
  %63 = call ptr (ptr, ptr, ...) @h5tools_str_append(ptr noundef %0, ptr noundef nonnull @.str.187, ptr noundef %62) #12
  %64 = load i64, ptr %4, align 16, !tbaa !19
  %65 = icmp eq i64 %64, -1
  %66 = load ptr, ptr @h5tools_dump_header_format, align 8, !tbaa !3
  %67 = getelementptr inbounds nuw i8, ptr %66, i64 680
  %68 = load ptr, ptr %67, align 8, !tbaa !73
  br i1 %65, label %69, label %71

69:                                               ; preds = %._crit_edge
  %70 = call ptr (ptr, ptr, ...) @h5tools_str_append(ptr noundef %0, ptr noundef nonnull @.str.72, ptr noundef %68, ptr noundef nonnull @.str.188) #12
  br label %73

71:                                               ; preds = %._crit_edge
  %72 = call ptr (ptr, ptr, ...) @h5tools_str_append(ptr noundef %0, ptr noundef nonnull @.str.189, ptr noundef %68, i64 noundef %64) #12
  br label %73

73:                                               ; preds = %71, %69
  br i1 %56, label %.lr.ph41.preheader, label %._crit_edge42

.lr.ph41.preheader:                               ; preds = %73
  %wide.trip.count47 = zext nneg i32 %5 to i64
  br label %.lr.ph41

.lr.ph41:                                         ; preds = %.lr.ph41.preheader, %81
  %indvars.iv44 = phi i64 [ 1, %.lr.ph41.preheader ], [ %indvars.iv.next45, %81 ]
  %74 = getelementptr inbounds nuw [32 x i64], ptr %4, i64 0, i64 %indvars.iv44
  %75 = load i64, ptr %74, align 8, !tbaa !19
  %76 = icmp eq i64 %75, -1
  br i1 %76, label %77, label %79

77:                                               ; preds = %.lr.ph41
  %78 = call ptr (ptr, ptr, ...) @h5tools_str_append(ptr noundef %0, ptr noundef nonnull @.str.190, ptr noundef nonnull @.str.188) #12
  br label %81

79:                                               ; preds = %.lr.ph41
  %80 = call ptr (ptr, ptr, ...) @h5tools_str_append(ptr noundef %0, ptr noundef nonnull @.str.186, i64 noundef %75) #12
  br label %81

81:                                               ; preds = %77, %79
  %indvars.iv.next45 = add nuw nsw i64 %indvars.iv44, 1
  %exitcond48.not = icmp eq i64 %indvars.iv.next45, %wide.trip.count47
  br i1 %exitcond48.not, label %._crit_edge42, label %.lr.ph41, !llvm.loop !76

._crit_edge42:                                    ; preds = %81, %73
  %82 = load ptr, ptr @h5tools_dump_header_format, align 8, !tbaa !3
  %83 = getelementptr inbounds nuw i8, ptr %82, i64 688
  %84 = load ptr, ptr %83, align 8, !tbaa !75
  %85 = call ptr (ptr, ptr, ...) @h5tools_str_append(ptr noundef %0, ptr noundef nonnull @.str.191, ptr noundef %84) #12
  br label %93

86:                                               ; preds = %42
  %87 = load ptr, ptr @h5tools_dump_header_format, align 8, !tbaa !3
  %88 = getelementptr inbounds nuw i8, ptr %87, i64 664
  %89 = load ptr, ptr %88, align 8, !tbaa !72
  %90 = call ptr (ptr, ptr, ...) @h5tools_str_append(ptr noundef %0, ptr noundef nonnull @.str.72, ptr noundef %89, ptr noundef nonnull @.str.192) #12
  br label %93

91:                                               ; preds = %42
  %92 = call ptr (ptr, ptr, ...) @h5tools_str_append(ptr noundef %0, ptr noundef nonnull @.str.193, ptr noundef nonnull @.str.14, ptr noundef nonnull @.str.15) #12
  br label %93

93:                                               ; preds = %34, %38, %26, %15, %19, %7, %43, %._crit_edge42, %86, %91
  %.1 = phi i32 [ 0, %91 ], [ 0, %86 ], [ 0, %._crit_edge42 ], [ 0, %43 ], [ -1, %7 ], [ -1, %19 ], [ -1, %15 ], [ -1, %26 ], [ -1, %38 ], [ -1, %34 ]
  call void @llvm.lifetime.end.p0(i64 256, ptr nonnull %4) #12
  call void @llvm.lifetime.end.p0(i64 256, ptr nonnull %3) #12
  ret i32 %.1
}